; ModuleID = '31/1161.c'
source_filename = "31/1161.c"
target datalayout = "e-m:e-p270:32:32-p271:32:32-p272:64:64-i64:64-f80:128-n8:16:32:64-S128"
target triple = "x86_64-pc-linux-gnu"

%struct.student = type { %struct.student*, [100 x i8], [20 x i8], [2 x i8], [10 x i8], [10 x i8], [100 x i8], %struct.student* }

@.str = private unnamed_addr constant [3 x i8] c"%s\00", align 1
@.str.1 = private unnamed_addr constant [4 x i8] c"end\00", align 1
@.str.2 = private unnamed_addr constant [15 x i8] c"%s %s %s %s %s\00", align 1
@.str.3 = private unnamed_addr constant [19 x i8] c"%s %s %s %s %s %s\0A\00", align 1

; Function Attrs: noinline nounwind uwtable
define dso_local void @main() #0 {
  %1 = alloca i32, align 4
  %2 = alloca %struct.student*, align 8
  %3 = alloca %struct.student*, align 8
  %4 = alloca %struct.student*, align 8
  %5 = alloca %struct.student*, align 8
  store i32 0, i32* %1, align 4
  %6 = call noalias i8* @malloc(i64 100) #4
  %7 = bitcast i8* %6 to %struct.student*
  store %struct.student* %7, %struct.student** %3, align 8
  %8 = load %struct.student*, %struct.student** %3, align 8
  %9 = getelementptr inbounds %struct.student, %struct.student* %8, i32 0, i32 1
  %10 = getelementptr inbounds [100 x i8], [100 x i8]* %9, i64 0, i64 0
  %11 = call i32 (i8*, ...) @__isoc99_scanf(i8* getelementptr inbounds ([3 x i8], [3 x i8]* @.str, i64 0, i64 0), i8* %10)
  br label %12

12:                                               ; preds = %47, %0
  %13 = load %struct.student*, %struct.student** %3, align 8
  %14 = getelementptr inbounds %struct.student, %struct.student* %13, i32 0, i32 1
  %15 = getelementptr inbounds [100 x i8], [100 x i8]* %14, i64 0, i64 0
  %16 = call i32 @strcmp(i8* %15, i8* getelementptr inbounds ([4 x i8], [4 x i8]* @.str.1, i64 0, i64 0)) #5
  %17 = icmp ne i32 %16, 0
  br i1 %17, label %18, label %55

18:                                               ; preds = %12
  %19 = load %struct.student*, %struct.student** %3, align 8
  %20 = getelementptr inbounds %struct.student, %struct.student* %19, i32 0, i32 2
  %21 = getelementptr inbounds [20 x i8], [20 x i8]* %20, i64 0, i64 0
  %22 = load %struct.student*, %struct.student** %3, align 8
  %23 = getelementptr inbounds %struct.student, %struct.student* %22, i32 0, i32 3
  %24 = getelementptr inbounds [2 x i8], [2 x i8]* %23, i64 0, i64 0
  %25 = load %struct.student*, %struct.student** %3, align 8
  %26 = getelementptr inbounds %struct.student, %struct.student* %25, i32 0, i32 4
  %27 = getelementptr inbounds [10 x i8], [10 x i8]* %26, i64 0, i64 0
  %28 = load %struct.student*, %struct.student** %3, align 8
  %29 = getelementptr inbounds %struct.student, %struct.student* %28, i32 0, i32 5
  %30 = getelementptr inbounds [10 x i8], [10 x i8]* %29, i64 0, i64 0
  %31 = load %struct.student*, %struct.student** %3, align 8
  %32 = getelementptr inbounds %struct.student, %struct.student* %31, i32 0, i32 6
  %33 = getelementptr inbounds [100 x i8], [100 x i8]* %32, i64 0, i64 0
  %34 = call i32 (i8*, ...) @__isoc99_scanf(i8* getelementptr inbounds ([15 x i8], [15 x i8]* @.str.2, i64 0, i64 0), i8* %21, i8* %24, i8* %27, i8* %30, i8* %33)
  %35 = load i32, i32* %1, align 4
  %36 = add nsw i32 %35, 1
  store i32 %36, i32* %1, align 4
  %37 = load i32, i32* %1, align 4
  %38 = icmp eq i32 %37, 1
  br i1 %38, label %39, label %43

39:                                               ; preds = %18
  %40 = load %struct.student*, %struct.student** %3, align 8
  %41 = getelementptr inbounds %struct.student, %struct.student* %40, i32 0, i32 0
  store %struct.student* null, %struct.student** %41, align 8
  %42 = load %struct.student*, %struct.student** %3, align 8
  store %struct.student* %42, %struct.student** %4, align 8
  br label %47

43:                                               ; preds = %18
  %44 = load %struct.student*, %struct.student** %4, align 8
  %45 = load %struct.student*, %struct.student** %3, align 8
  %46 = getelementptr inbounds %struct.student, %struct.student* %45, i32 0, i32 0
  store %struct.student* %44, %struct.student** %46, align 8
  br label %47

47:                                               ; preds = %43, %39
  %48 = load %struct.student*, %struct.student** %3, align 8
  store %struct.student* %48, %struct.student** %4, align 8
  %49 = call noalias i8* @malloc(i64 100) #4
  %50 = bitcast i8* %49 to %struct.student*
  store %struct.student* %50, %struct.student** %3, align 8
  %51 = load %struct.student*, %struct.student** %3, align 8
  %52 = getelementptr inbounds %struct.student, %struct.student* %51, i32 0, i32 1
  %53 = getelementptr inbounds [100 x i8], [100 x i8]* %52, i64 0, i64 0
  %54 = call i32 (i8*, ...) @__isoc99_scanf(i8* getelementptr inbounds ([3 x i8], [3 x i8]* @.str, i64 0, i64 0), i8* %53)
  br label %12

55:                                               ; preds = %12
  %56 = load %struct.student*, %struct.student** %4, align 8
  store %struct.student* %56, %struct.student** %5, align 8
  br label %57

57:                                               ; preds = %80, %55
  %58 = load %struct.student*, %struct.student** %5, align 8
  %59 = getelementptr inbounds %struct.student, %struct.student* %58, i32 0, i32 1
  %60 = getelementptr inbounds [100 x i8], [100 x i8]* %59, i64 0, i64 0
  %61 = load %struct.student*, %struct.student** %5, align 8
  %62 = getelementptr inbounds %struct.student, %struct.student* %61, i32 0, i32 2
  %63 = getelementptr inbounds [20 x i8], [20 x i8]* %62, i64 0, i64 0
  %64 = load %struct.student*, %struct.student** %5, align 8
  %65 = getelementptr inbounds %struct.student, %struct.student* %64, i32 0, i32 3
  %66 = getelementptr inbounds [2 x i8], [2 x i8]* %65, i64 0, i64 0
  %67 = load %struct.student*, %struct.student** %5, align 8
  %68 = getelementptr inbounds %struct.student, %struct.student* %67, i32 0, i32 4
  %69 = getelementptr inbounds [10 x i8], [10 x i8]* %68, i64 0, i64 0
  %70 = load %struct.student*, %struct.student** %5, align 8
  %71 = getelementptr inbounds %struct.student, %struct.student* %70, i32 0, i32 5
  %72 = getelementptr inbounds [10 x i8], [10 x i8]* %71, i64 0, i64 0
  %73 = load %struct.student*, %struct.student** %5, align 8
  %74 = getelementptr inbounds %struct.student, %struct.student* %73, i32 0, i32 6
  %75 = getelementptr inbounds [100 x i8], [100 x i8]* %74, i64 0, i64 0
  %76 = call i32 (i8*, ...) @printf(i8* getelementptr inbounds ([19 x i8], [19 x i8]* @.str.3, i64 0, i64 0), i8* %60, i8* %63, i8* %66, i8* %69, i8* %72, i8* %75)
  %77 = load %struct.student*, %struct.student** %5, align 8
  %78 = getelementptr inbounds %struct.student, %struct.student* %77, i32 0, i32 0
  %79 = load %struct.student*, %struct.student** %78, align 8
  store %struct.student* %79, %struct.student** %5, align 8
  br label %80

80:                                               ; preds = %57
  %81 = load %struct.student*, %struct.student** %5, align 8
  %82 = icmp ne %struct.student* %81, null
  br i1 %82, label %57, label %83

83:                                               ; preds = %80
  ret void
}

; Function Attrs: nounwind
declare dso_local noalias i8* @malloc(i64) #1

declare dso_local i32 @__isoc99_scanf(i8*, ...) #2

; Function Attrs: nounwind readonly
declare dso_local i32 @strcmp(i8*, i8*) #3

declare dso_local i32 @printf(i8*, ...) #2


!llvm.module.flags = !{!0}
!llvm.ident = !{!1}

!0 = !{i32 1, !"wchar_size", i32 4}
!1 = !{!"clang version 10.0.0-4ubuntu1 "}
